; Function Attrs: mustprogress uwtable
define hidden void @_ZN4cvc58internal6theory2bv14NodeBitblaster19applyAtomBBStrategyENS0_12NodeTemplateILb0EEE(ptr noalias sret(%"class.cvc5::internal::NodeTemplate.298") align 8 %agg.result, ptr noundef nonnull align 8 dereferenceable(6112) %this, ptr nocapture noundef readonly %node) local_unnamed_addr #3 align 2 personality ptr @__gxx_personality_v0 {
entry:
  %agg.tmp = alloca %"class.cvc5::internal::NodeTemplate", align 8
  %d_atomBBStrategies = getelementptr inbounds i8, ptr %this, i64 3056
  %0 = load ptr, ptr %node, align 8
  %d_kind.i = getelementptr inbounds i8, ptr %0, i64 8
  %bf.load.i = load i16, ptr %d_kind.i, align 8
  %bf.clear.i = and i16 %bf.load.i, 1023
  %idxprom = zext nneg i16 %bf.clear.i to i64
  %arrayidx = getelementptr inbounds [365 x ptr], ptr %d_atomBBStrategies, i64 0, i64 %idxprom
  %1 = load ptr, ptr %arrayidx, align 8
  store ptr %0, ptr %agg.tmp, align 8
  call void %1(ptr sret(%"class.cvc5::internal::NodeTemplate.298") align 8 %agg.result, ptr noundef nonnull %agg.tmp, ptr noundef nonnull %this)
  ret void
}